target datalayout = "e-m:e-p270:32:32-p271:32:32-p272:64:64-i64:64-i128:128-f80:128-n8:16:32:64-S128"
target triple = "x86_64-pc-linux-gnu"

%struct._zend_refcounted_h = type { i32, %union.anon }
%union.anon = type { i32 }
%struct._zend_string = type { %struct._zend_refcounted_h, i64, i64, [1 x i8] }

@.str.8 = private unnamed_addr constant [5 x i8] c"cost\00", align 1
@.str.17 = private unnamed_addr constant [9 x i8] c"$2y$%ld$\00", align 1

; Function Attrs: nounwind uwtable
define internal zeroext i1 @php_password_bcrypt_valid(ptr noundef %0) #0 {
  %2 = alloca ptr, align 8
  %3 = alloca ptr, align 8
  store ptr %0, ptr %2, align 8
  %4 = load ptr, ptr %2, align 8
  %5 = getelementptr inbounds %struct._zend_string, ptr %4, i32 0, i32 3
  %6 = getelementptr inbounds [1 x i8], ptr %5, i64 0, i64 0
  store ptr %6, ptr %3, align 8
  %7 = load ptr, ptr %2, align 8
  %8 = getelementptr inbounds %struct._zend_string, ptr %7, i32 0, i32 2
  %9 = load i64, ptr %8, align 8
  %10 = icmp eq i64 %9, 60
  br i1 %10, label %11, label %29

11:                                               ; preds = %1
  %12 = load ptr, ptr %3, align 8
  %13 = getelementptr inbounds i8, ptr %12, i64 0
  %14 = load i8, ptr %13, align 1
  %15 = sext i8 %14 to i32
  %16 = icmp eq i32 %15, 36
  br i1 %16, label %17, label %29

17:                                               ; preds = %11
  %18 = load ptr, ptr %3, align 8
  %19 = getelementptr inbounds i8, ptr %18, i64 1
  %20 = load i8, ptr %19, align 1
  %21 = sext i8 %20 to i32
  %22 = icmp eq i32 %21, 50
  br i1 %22, label %23, label %29

23:                                               ; preds = %17
  %24 = load ptr, ptr %3, align 8
  %25 = getelementptr inbounds i8, ptr %24, i64 2
  %26 = load i8, ptr %25, align 1
  %27 = sext i8 %26 to i32
  %28 = icmp eq i32 %27, 121
  br label %29

29:                                               ; preds = %23, %17, %11, %1
  %30 = phi i1 [ false, %17 ], [ false, %11 ], [ false, %1 ], [ %28, %23 ]
  ret i1 %30
}

; Function Attrs: nounwind uwtable
define internal i32 @php_password_bcrypt_get_info(ptr noundef %0, ptr noundef %1) #0 {
  %3 = alloca ptr, align 8
  %4 = alloca ptr, align 8
  %5 = alloca i64, align 8
  %6 = alloca i32, align 4
  %7 = alloca ptr, align 8
  %8 = alloca ptr, align 8
  %9 = alloca i64, align 8
  store ptr %0, ptr %7, align 8
  store ptr %1, ptr %8, align 8
  store i64 12, ptr %9, align 8
  %10 = load ptr, ptr %8, align 8
  %11 = call zeroext i1 @php_password_bcrypt_valid(ptr noundef %10)
  br i1 %11, label %13, label %12

12:                                               ; preds = %2
  store i32 -1, ptr %6, align 4
  br label %25

13:                                               ; preds = %2
  %14 = load ptr, ptr %8, align 8
  %15 = getelementptr inbounds %struct._zend_string, ptr %14, i32 0, i32 3
  %16 = getelementptr inbounds [1 x i8], ptr %15, i64 0, i64 0
  %17 = call i32 (ptr, ptr, ...) @__isoc99_sscanf(ptr noundef %16, ptr noundef @.str.17, ptr noundef %9) #9
  %18 = load ptr, ptr %7, align 8
  %19 = load i64, ptr %9, align 8
  store ptr %18, ptr %3, align 8
  store ptr @.str.8, ptr %4, align 8
  store i64 %19, ptr %5, align 8
  %20 = load ptr, ptr %3, align 8
  %21 = load ptr, ptr %4, align 8
  %22 = load ptr, ptr %4, align 8
  %23 = call i64 @strlen(ptr noundef %22) #8
  %24 = load i64, ptr %5, align 8
  call void @add_assoc_long_ex(ptr noundef %20, ptr noundef %21, i64 noundef %23, i64 noundef %24) #9
  store i32 0, ptr %6, align 4
  br label %25

25:                                               ; preds = %13, %12
  %26 = load i32, ptr %6, align 4
  ret i32 %26
}