; Function Attrs: nounwind uwtable
define internal noundef i32 @php_password_bcrypt_get_info(ptr noundef %0, ptr nocapture noundef readonly %1) #0 {
  %3 = alloca i64, align 8
  store i64 12, ptr %3, align 8
  %4 = getelementptr inbounds i8, ptr %1, i64 16
  %5 = load i64, ptr %4, align 8
  %6 = icmp eq i64 %5, 60
  br i1 %6, label %7, label %php_password_bcrypt_valid.exit.thread

7:                                                ; preds = %2
  %8 = getelementptr inbounds i8, ptr %1, i64 24
  %9 = load i8, ptr %8, align 1
  %10 = icmp eq i8 %9, 36
  br i1 %10, label %11, label %php_password_bcrypt_valid.exit.thread

11:                                               ; preds = %7
  %12 = getelementptr inbounds i8, ptr %1, i64 25
  %13 = load i8, ptr %12, align 1
  %14 = icmp eq i8 %13, 50
  br i1 %14, label %php_password_bcrypt_valid.exit, label %php_password_bcrypt_valid.exit.thread

php_password_bcrypt_valid.exit:                   ; preds = %11
  %15 = getelementptr inbounds i8, ptr %1, i64 26
  %16 = load i8, ptr %15, align 1
  %17 = icmp eq i8 %16, 121
  br i1 %17, label %18, label %php_password_bcrypt_valid.exit.thread

18:                                               ; preds = %php_password_bcrypt_valid.exit
  %19 = call i32 (ptr, ptr, ...) @__isoc99_sscanf(ptr noundef nonnull %8, ptr noundef nonnull @.str.17, ptr noundef nonnull %3) #12
  %20 = load i64, ptr %3, align 8
  call void @add_assoc_long_ex(ptr noundef %0, ptr noundef nonnull @.str.8, i64 noundef 4, i64 noundef %20) #12
  br label %php_password_bcrypt_valid.exit.thread

php_password_bcrypt_valid.exit.thread:            ; preds = %2, %7, %11, %php_password_bcrypt_valid.exit, %18
  %.0 = phi i32 [ 0, %18 ], [ -1, %php_password_bcrypt_valid.exit ], [ -1, %11 ], [ -1, %7 ], [ -1, %2 ]
  ret i32 %.0
}